(dp1
S'tdoas'
p2
(lp3
(lp4
F-0.75250388888858399
aF-0.46333583333342476
aF0.24075961538458901
aa(lp5
F0.13820041666668495
aF0.71287454710124953
aF0.57952708333328762
aa(lp6
F0.56166250000000006
aF0.57295291666671244
aF-0.039016250000008232
aa(lp7
F-0.22244714506174521
aF-0.69790972222203285
aF-0.40016666666781003
aa(lp8
F-0.75021722222228326
aF-0.40552604166622191
aF0.22237152777775579
aa(lp9
F-0.29774305555559821
aF0.56899888888913286
aF0.85302194444429191
aa(lp10
F-0.26410999999994511
aF0.61111166666643801
aF0.82993750000000088
aa(lp11
F0.68857250000000003
aF0.48168209876532198
aF-0.30555583333330133
aa(lp12
F0.39378305555533755
aF-0.43992681623923391
aF-0.80569270833326367
aa(lp13
F-0.75679138888885833
aF-0.41564930555526552
aF0.27853862847218885
aa(lp14
F-0.23066749999998629
aF0.54575111111073005
aF0.75774416666657518
aa(lp15
F0.57928888888872121
aF-0.19128049516906881
aF-0.77333796296294599
aa(lp16
F0.71215375000027448
aF0.088131944444373986
aF-0.68457083333339053
aa(lp17
F0.53241222222228324
aF-0.22736742424243456
aF-0.69927083333333462
aa(lp18
F-0.67113666666684957
aF-0.28954916666663005
aF0.39540277777782656
aa(lp19
F0.54251166666684958
aF-0.21715393518519313
aF-0.73478222222200884
aa(lp20
F0.69829083333342468
aF-0.079624999999999946
aF-0.75150347222260216
aa(lp21
F-0.67866361111127871
aF-0.27499548611115876
aF0.38666898148135975
aa(lp22
F-0.68599999999972561
aF-0.29729644097218888
aF0.39857870370325199
aa(lp23
F0.70067277777757953
aF-0.055578703703713983
aF-0.64967534722146003
aa(lp24
F-0.67513833333342477
aF-0.32326388888889424
aF0.44224768518531149
aa(lp25
F-0.24881394675927038
aF0.47986255787038623
aF0.72582611111100448
aa(lp26
F-0.67313749999986283
aF-0.26258555555557078
aF0.42722555555576291
aasS'doas'
p27
(lp28
(lp29
F25.945599999999999
aF-26.895900000000001
aF26.949400000000001
aa(lp30
F-99.088200000000001
aF-113.4679
aF-110.0942
aa(lp31
F-129.27019999999999
aF-159.0384
aF-160.58789999999999
aa(lp32
F125.88930000000001
aF21.040500000000002
aF83.531800000000004
aa(lp33
F4.8503999999999996
aF-37.728000000000002
aF38.736199999999997
aa(lp34
F-69.032499999999999
aF-80.479799999999997
aF-17.967099999999999
aa(lp35
F-81.636099999999999
aF-72.471500000000006
aF-23.932600000000001
aa(lp36
F-136.31190000000001
aF-167.85310000000001
aF175.80969999999999
aa(lp37
F174.16069999999999
aF64.437200000000004
aF116.0715
aa(lp38
F1.6742999999999999
aF-38.244599999999998
aF37.701700000000002
aa(lp39
F-66.079599999999999
aF-88.0852
aF-49.5458
aa(lp40
F-169.352
aF117.17789999999999
aF139.50120000000001
aa(lp41
F-158.87389999999999
aF145.65780000000001
aF156.49250000000001
aa(lp42
F-172.11420000000001
aF110.1238
aF136.77780000000001
aa(lp43
F-8.7423000000000002
aF-48.949199999999998
aF12.929500000000001
aa(lp44
F-170.3922
aF112.7003
aF137.10380000000001
aa(lp45
F-160.11019999999999
aF147.4101
aF156.45060000000001
aa(lp46
F-48.832299999999996
aF-9.3094000000000001
aF8.8514999999999997
aa(lp47
F-7.7728999999999999
aF-45.998899999999999
aF10.8172
aa(lp48
F-159.39680000000001
aF148.5153
aF158.25489999999999
aa(lp49
F-5.9485999999999999
aF-48.514099999999999
aF15.0501
aa(lp50
F-63.0839
aF-87.796300000000002
aF-47.041600000000003
aa(lp51
F-8.0610999999999997
aF-47.684199999999997
aF11.975300000000001
aasS'room_dimensions'
p52
cnumpy.core.multiarray
_reconstruct
p53
(cnumpy
ndarray
p54
(I0
tS'b'
tRp55
(I1
(I3
I2
tcnumpy
dtype
p56
(S'f8'
I0
I1
tRp57
(I3
S'<'
NNNI-1
I-1
I0
tbI00
S'\x00\x00\x00\x00\x00\x00\x00\x00\xcd\xcc\xcc\xcc\xcc\xcc\x1a@\x00\x00\x00\x00\x00\x00\x00\x00333333\x0b@\x00\x00\x00\x00\x00\x00\x00\x00ffffff\x04@'
tbsS'times'
p58
(lp59
(F19
F22
tp60
a(F23.25
F25.75
tp61
a(F27.5
F29.879999999999999
tp62
a(F30.120000000000001
F33.119999999999997
tp63
a(F45.619999999999997
F48.619999999999997
tp64
a(F64.120000000000005
F67.120000000000005
tp65
a(F72.25
F74.379999999999995
tp66
a(F75.75
F78.75
tp67
a(F86.75
F89.75
tp68
a(F103.88
F106.88
tp69
a(F134.38
F137.38
tp70
a(F144
F147
tp71
a(F150.62
F152.75
tp72
a(F175.62
F178.62
tp73
a(F182.88
F185.88
tp74
a(F214.25
F217.25
tp75
a(F227.62
F230.62
tp76
a(F233.5
F236.5
tp77
a(F239.25
F242.25
tp78
a(F249.75
F252.75
tp79
a(F262.38
F264.62
tp80
a(F275.5
F278.5
tp81
a(F284.38
F287.38
tp82
asS'true_positions'
p83
g53
(g54
(I0
tS'b'
tRp84
(I1
(I3
I4
tg57
I00
S'\xcb\xa1E\xb6\xf3\xfd\r@\xb8\x1e\x85\xebQ\xb8\x00@\x8bl\xe7\xfb\xa9\xf1\xe6?\x00\x00\x00\x00\x00\x80@\xc0\x10X9\xb4\xc8v\x07@\x89A`\xe5\xd0"\x02@\x8bl\xe7\xfb\xa9\xf1\xe6?\x00\x00\x00\x00\x00\x003@!\xb0rh\x91\xed\t@\xf6(\\\x8f\xc2\xf5\xf4?\x8bl\xe7\xfb\xa9\xf1\xe6?\x00\x00\x00\x00\x00\x00.\xc0'
tbs.